; Function Attrs: mustprogress uwtable
define noundef double @_ZN8QuantLib16GFunctionFactory19GFunctionWithShiftsclEd(ptr noundef nonnull align 8 dereferenceable(176) %this, double noundef %Rs) unnamed_addr #7 align 2 {
entry:
  %call = tail call noundef double @_ZN8QuantLib16GFunctionFactory19GFunctionWithShifts18calibrationOfShiftEd(ptr noundef nonnull align 8 dereferenceable(176) %this, double noundef %Rs)
  %shapedPaymentTime_.i = getelementptr inbounds nuw i8, ptr %this, i64 16
  %0 = load double, ptr %shapedPaymentTime_.i, align 8, !tbaa !251
  %fneg.i = fneg double %0
  %mul.i = fmul double %call, %fneg.i
  %call.i = tail call double @exp(double noundef %mul.i) #35, !tbaa !58
  %discountRatio_.i = getelementptr inbounds nuw i8, ptr %this, i64 104
  %1 = load double, ptr %discountRatio_.i, align 8, !tbaa !252
  %_M_finish.i.i.i = getelementptr inbounds nuw i8, ptr %this, i64 32
  %2 = load ptr, ptr %_M_finish.i.i.i, align 8, !tbaa !3
  %add.ptr.i.i.i = getelementptr inbounds i8, ptr %2, i64 -8
  %3 = load double, ptr %add.ptr.i.i.i, align 8, !tbaa !240
  %fneg3.i = fneg double %3
  %mul4.i = fmul double %call, %fneg3.i
  %call5.i = tail call double @exp(double noundef %mul4.i) #35, !tbaa !58
  %neg.i = fneg double %1
  %4 = tail call double @llvm.fmuladd.f64(double %neg.i, double %call5.i, double 1.000000e+00)
  %div.i = fdiv double %call.i, %4
  %mul = fmul double %Rs, %div.i
  ret double %mul
}